; Function Attrs: mustprogress nofree norecurse nosync nounwind willreturn memory(read, inaccessiblemem: none) uwtable
define dso_local noundef zeroext range(i8 0, 32) i8 @_ZN5clang17computeDependenceEPNS_19MatrixSubscriptExprE(ptr noundef readonly captures(none) %0) local_unnamed_addr #0 {
  %2 = getelementptr inbounds nuw i8, ptr %0, i64 16
  %3 = load ptr, ptr %2, align 8
  %4 = getelementptr inbounds nuw i8, ptr %3, i64 1
  %5 = load i16, ptr %4, align 1
  %6 = getelementptr inbounds nuw i8, ptr %0, i64 24
  %7 = load ptr, ptr %6, align 8
  %8 = getelementptr inbounds nuw i8, ptr %7, i64 1
  %9 = load i16, ptr %8, align 1
  %10 = getelementptr inbounds nuw i8, ptr %0, i64 32
  %11 = load ptr, ptr %10, align 8
  %.not = icmp eq ptr %11, null
  br i1 %.not, label %18, label %12

12:                                               ; preds = %1
  %13 = getelementptr inbounds nuw i8, ptr %11, i64 1
  %14 = load i16, ptr %13, align 1
  %15 = lshr i16 %14, 5
  %16 = trunc i16 %15 to i8
  %17 = and i8 %16, 31
  br label %18

18:                                               ; preds = %1, %12
  %19 = phi i8 [ %17, %12 ], [ 0, %1 ]
  %20 = or i16 %9, %5
  %21 = lshr i16 %20, 5
  %22 = trunc i16 %21 to i8
  %23 = and i8 %22, 31
  %24 = or i8 %19, %23
  ret i8 %24
}